; Function Attrs: nounwind sspstrong uwtable
define internal fastcc noundef ptr @rb_node_lambda_new(ptr noundef captures(none) %0, ptr noundef %1, ptr noundef %2, ptr noundef nonnull readonly captures(none) %3, ptr noundef nonnull readonly captures(none) %4, ptr noundef readonly captures(none) %5, ptr noundef readonly captures(none) %6) unnamed_addr #0 {
  %8 = tail call fastcc ptr @rb_node_scope_new(ptr noundef %0, ptr noundef %1, ptr noundef %2, ptr noundef %3)
  %.val = load i64, ptr %4, align 4
  %9 = getelementptr i8, ptr %6, i64 8
  %.val16 = load i64, ptr %9, align 4
  %10 = getelementptr i8, ptr %0, i64 288
  %.val.i = load ptr, ptr %10, align 8, !tbaa !120
  %11 = tail call ptr @rb_ast_newnode(ptr noundef %.val.i, i32 noundef range(i32 0, 115) 104, i64 noundef range(i64 32, 129) 88, i64 noundef 8) #31
  tail call void @rb_node_init(ptr noundef %11, i32 noundef range(i32 0, 115) 104) #31
  %12 = getelementptr inbounds nuw i8, ptr %11, i64 8
  store i64 %.val, ptr %12, align 8
  %.sroa.5.0..sroa_idx = getelementptr inbounds nuw i8, ptr %11, i64 16
  store i64 %.val16, ptr %.sroa.5.0..sroa_idx, align 8
  %sext = shl i64 %.val, 32
  %13 = load i64, ptr %11, align 8, !tbaa !61
  %14 = and i64 %13, 32767
  %15 = ashr exact i64 %sext, 17
  %16 = or disjoint i64 %14, %15
  store i64 %16, ptr %11, align 8, !tbaa !61
  %17 = getelementptr inbounds nuw i8, ptr %0, i64 296
  %18 = load i32, ptr %17, align 8, !tbaa !192
  %19 = add nsw i32 %18, 1
  store i32 %19, ptr %17, align 8, !tbaa !192
  %20 = getelementptr inbounds nuw i8, ptr %11, i64 24
  store i32 %18, ptr %20, align 8, !tbaa !193
  %21 = getelementptr inbounds nuw i8, ptr %11, i64 32
  store ptr %8, ptr %21, align 8, !tbaa !154
  %22 = getelementptr inbounds nuw i8, ptr %11, i64 40
  tail call void @llvm.memcpy.p0.p0.i64(ptr noundef nonnull align 8 dereferenceable(16) %22, ptr noundef nonnull align 4 dereferenceable(16) %4, i64 16, i1 false), !tbaa.struct !11
  %23 = getelementptr inbounds nuw i8, ptr %11, i64 56
  tail call void @llvm.memcpy.p0.p0.i64(ptr noundef nonnull align 8 dereferenceable(16) %23, ptr noundef nonnull align 4 dereferenceable(16) %5, i64 16, i1 false), !tbaa.struct !11
  %24 = getelementptr inbounds nuw i8, ptr %11, i64 72
  tail call void @llvm.memcpy.p0.p0.i64(ptr noundef nonnull align 8 dereferenceable(16) %24, ptr noundef nonnull align 4 dereferenceable(16) %6, i64 16, i1 false), !tbaa.struct !11
  ret ptr %11
}